; Function Attrs: mustprogress nofree norecurse nosync nounwind willreturn memory(argmem: read) uwtable
define noundef double @_ZNK32pxrInternal_v0_24__pxrReserved__9GfFrustum18ComputeAspectRatioEv(ptr nocapture noundef nonnull readonly align 8 dereferenceable(128) %0) local_unnamed_addr #8 align 2 {
  %2 = getelementptr inbounds nuw i8, ptr %0, i64 56
  %3 = getelementptr inbounds i8, ptr %0, i64 72
  %.sroa.0.0.copyload2.i.i = load double, ptr %3, align 8
  %.sroa.4.0..sroa_idx.i.i = getelementptr inbounds i8, ptr %0, i64 80
  %.sroa.4.0.copyload.i.i = load double, ptr %.sroa.4.0..sroa_idx.i.i, align 8
  %4 = load double, ptr %2, align 8
  %5 = fsub double %.sroa.0.0.copyload2.i.i, %4
  %6 = getelementptr inbounds i8, ptr %0, i64 64
  %7 = load double, ptr %6, align 8
  %8 = fsub double %.sroa.4.0.copyload.i.i, %7
  %9 = fcmp une double %8, 0.000000e+00
  %10 = fdiv double %5, %8
  %11 = tail call double @llvm.fabs.f64(double %10)
  %.0 = select i1 %9, double %11, double 0.000000e+00
  ret double %.0
}